target datalayout = "e-m:e-p270:32:32-p271:32:32-p272:64:64-i64:64-i128:128-f80:128-n8:16:32:64-S128"
target triple = "x86_64-pc-linux-gnu"

%"struct.std::_Rb_tree_header" = type { %"struct.std::_Rb_tree_node_base", i64 }
%"struct.std::_Rb_tree_node_base" = type { i32, ptr, ptr, ptr }
%"class.__gnu_cxx::__normal_iterator.41" = type { ptr }
%"class.SubCircuit::Graph" = type { i8, %"class.std::map", %"class.std::vector", %"class.std::vector.3" }
%"class.std::map" = type { %"class.std::_Rb_tree" }
%"class.std::_Rb_tree" = type { %"struct.std::_Rb_tree<std::__cxx11::basic_string<char>, std::pair<const std::__cxx11::basic_string<char>, int>, std::_Select1st<std::pair<const std::__cxx11::basic_string<char>, int>>, std::less<std::__cxx11::basic_string<char>>>::_Rb_tree_impl" }
%"struct.std::_Rb_tree<std::__cxx11::basic_string<char>, std::pair<const std::__cxx11::basic_string<char>, int>, std::_Select1st<std::pair<const std::__cxx11::basic_string<char>, int>>, std::less<std::__cxx11::basic_string<char>>>::_Rb_tree_impl" = type { [8 x i8], %"struct.std::_Rb_tree_header" }
%"class.std::vector" = type { %"struct.std::_Vector_base" }
%"struct.std::_Vector_base" = type { %"struct.std::_Vector_base<SubCircuit::Graph::Node, std::allocator<SubCircuit::Graph::Node>>::_Vector_impl" }
%"struct.std::_Vector_base<SubCircuit::Graph::Node, std::allocator<SubCircuit::Graph::Node>>::_Vector_impl" = type { %"struct.std::_Vector_base<SubCircuit::Graph::Node, std::allocator<SubCircuit::Graph::Node>>::_Vector_impl_data" }
%"struct.std::_Vector_base<SubCircuit::Graph::Node, std::allocator<SubCircuit::Graph::Node>>::_Vector_impl_data" = type { ptr, ptr, ptr }
%"class.std::vector.3" = type { %"struct.std::_Vector_base.4" }
%"struct.std::_Vector_base.4" = type { %"struct.std::_Vector_base<SubCircuit::Graph::Edge, std::allocator<SubCircuit::Graph::Edge>>::_Vector_impl" }
%"struct.std::_Vector_base<SubCircuit::Graph::Edge, std::allocator<SubCircuit::Graph::Edge>>::_Vector_impl" = type { %"struct.std::_Vector_base<SubCircuit::Graph::Edge, std::allocator<SubCircuit::Graph::Edge>>::_Vector_impl_data" }
%"struct.std::_Vector_base<SubCircuit::Graph::Edge, std::allocator<SubCircuit::Graph::Edge>>::_Vector_impl_data" = type { ptr, ptr, ptr }
%"struct.SubCircuit::Graph::Node" = type <{ %"class.std::__cxx11::basic_string", %"class.std::__cxx11::basic_string", %"class.std::map", %"class.std::vector.22", ptr, i8, [7 x i8] }>
%"class.std::__cxx11::basic_string" = type { %"struct.std::__cxx11::basic_string<char>::_Alloc_hider", i64, %union.anon }
%"struct.std::__cxx11::basic_string<char>::_Alloc_hider" = type { ptr }
%union.anon = type { i64, [8 x i8] }
%"class.std::vector.22" = type { %"struct.std::_Vector_base.23" }
%"struct.std::_Vector_base.23" = type { %"struct.std::_Vector_base<SubCircuit::Graph::Port, std::allocator<SubCircuit::Graph::Port>>::_Vector_impl" }
%"struct.std::_Vector_base<SubCircuit::Graph::Port, std::allocator<SubCircuit::Graph::Port>>::_Vector_impl" = type { %"struct.std::_Vector_base<SubCircuit::Graph::Port, std::allocator<SubCircuit::Graph::Port>>::_Vector_impl_data" }
%"struct.std::_Vector_base<SubCircuit::Graph::Port, std::allocator<SubCircuit::Graph::Port>>::_Vector_impl_data" = type { ptr, ptr, ptr }
%"struct.SubCircuit::Graph::Port" = type { %"class.std::__cxx11::basic_string", i32, %"class.std::vector.27" }
%"class.std::vector.27" = type { %"struct.std::_Vector_base.28" }
%"struct.std::_Vector_base.28" = type { %"struct.std::_Vector_base<SubCircuit::Graph::PortBit, std::allocator<SubCircuit::Graph::PortBit>>::_Vector_impl" }
%"struct.std::_Vector_base<SubCircuit::Graph::PortBit, std::allocator<SubCircuit::Graph::PortBit>>::_Vector_impl" = type { %"struct.std::_Vector_base<SubCircuit::Graph::PortBit, std::allocator<SubCircuit::Graph::PortBit>>::_Vector_impl_data" }
%"struct.std::_Vector_base<SubCircuit::Graph::PortBit, std::allocator<SubCircuit::Graph::PortBit>>::_Vector_impl_data" = type { ptr, ptr, ptr }
%"struct.SubCircuit::Graph::PortBit" = type { i32 }
%"struct.SubCircuit::Graph::Edge" = type <{ %"class.std::set", i32, i8, [3 x i8] }>
%"class.std::set" = type { %"class.std::_Rb_tree.33" }
%"class.std::_Rb_tree.33" = type { %"struct.std::_Rb_tree<SubCircuit::Graph::BitRef, SubCircuit::Graph::BitRef, std::_Identity<SubCircuit::Graph::BitRef>, std::less<SubCircuit::Graph::BitRef>>::_Rb_tree_impl" }
%"struct.std::_Rb_tree<SubCircuit::Graph::BitRef, SubCircuit::Graph::BitRef, std::_Identity<SubCircuit::Graph::BitRef>, std::less<SubCircuit::Graph::BitRef>>::_Rb_tree_impl" = type { [8 x i8], %"struct.std::_Rb_tree_header" }

; Function Attrs: mustprogress nounwind uwtable
define linkonce_odr noundef nonnull align 8 dereferenceable(8) ptr @_ZNK9__gnu_cxx17__normal_iteratorIPN10SubCircuit5Graph7PortBitESt6vectorIS3_SaIS3_EEE4baseEv(ptr noundef nonnull align 8 dereferenceable(8) %0) #5 comdat align 2 {
  %2 = alloca ptr, align 8
  store ptr %0, ptr %2, align 8, !tbaa !114
  %3 = load ptr, ptr %2, align 8
  %4 = getelementptr inbounds nuw %"class.__gnu_cxx::__normal_iterator.41", ptr %3, i32 0, i32 0
  ret ptr %4
}

; Function Attrs: mustprogress nounwind uwtable
define linkonce_odr void @_ZN9__gnu_cxx17__normal_iteratorIPN10SubCircuit5Graph7PortBitESt6vectorIS3_SaIS3_EEEC2ERKS4_(ptr noundef nonnull align 8 dereferenceable(8) %0, ptr noundef nonnull align 8 dereferenceable(8) %1) unnamed_addr #5 comdat align 2 {
  %3 = alloca ptr, align 8
  %4 = alloca ptr, align 8
  store ptr %0, ptr %3, align 8, !tbaa !114
  store ptr %1, ptr %4, align 8, !tbaa !309
  %5 = load ptr, ptr %3, align 8
  %6 = getelementptr inbounds nuw %"class.__gnu_cxx::__normal_iterator.41", ptr %5, i32 0, i32 0
  %7 = load ptr, ptr %4, align 8, !tbaa !309
  %8 = load ptr, ptr %7, align 8, !tbaa !54
  store ptr %8, ptr %6, align 8, !tbaa !116
  ret void
}

; Function Attrs: mustprogress nounwind uwtable
define linkonce_odr noundef nonnull align 4 dereferenceable(4) ptr @_ZNSt6vectorIN10SubCircuit5Graph7PortBitESaIS2_EEixEm(ptr noundef nonnull align 8 dereferenceable(24) %0, i64 noundef %1) #5 comdat align 2 {
  %3 = alloca ptr, align 8
  %4 = alloca i64, align 8
  store ptr %0, ptr %3, align 8, !tbaa !52
  store i64 %1, ptr %4, align 8, !tbaa !89
  %5 = load ptr, ptr %3, align 8
  %6 = getelementptr inbounds nuw %"struct.std::_Vector_base.28", ptr %5, i32 0, i32 0
  %7 = getelementptr inbounds nuw %"struct.std::_Vector_base<SubCircuit::Graph::PortBit, std::allocator<SubCircuit::Graph::PortBit>>::_Vector_impl_data", ptr %6, i32 0, i32 0
  %8 = load ptr, ptr %7, align 8, !tbaa !141
  %9 = load i64, ptr %4, align 8, !tbaa !89
  %10 = getelementptr inbounds nuw %"struct.SubCircuit::Graph::PortBit", ptr %8, i64 %9
  ret ptr %10
}

; Function Attrs: mustprogress nounwind uwtable
define linkonce_odr noundef nonnull align 8 dereferenceable(8) ptr @_ZN9__gnu_cxx17__normal_iteratorIPN10SubCircuit5Graph7PortBitESt6vectorIS3_SaIS3_EEEppEv(ptr noundef nonnull align 8 dereferenceable(8) %0) #5 comdat align 2 {
  %2 = alloca ptr, align 8
  store ptr %0, ptr %2, align 8, !tbaa !114
  %3 = load ptr, ptr %2, align 8
  %4 = getelementptr inbounds nuw %"class.__gnu_cxx::__normal_iterator.41", ptr %3, i32 0, i32 0
  %5 = load ptr, ptr %4, align 8, !tbaa !116
  %6 = getelementptr inbounds nuw %"struct.SubCircuit::Graph::PortBit", ptr %5, i32 1
  store ptr %6, ptr %4, align 8, !tbaa !116
  ret ptr %3
}

; Function Attrs: mustprogress nounwind uwtable
define linkonce_odr noundef nonnull align 8 dereferenceable(53) ptr @_ZNSt6vectorIN10SubCircuit5Graph4EdgeESaIS2_EEixEm(ptr noundef nonnull align 8 dereferenceable(24) %0, i64 noundef %1) #5 comdat align 2 {
  %3 = alloca ptr, align 8
  %4 = alloca i64, align 8
  store ptr %0, ptr %3, align 8, !tbaa !78
  store i64 %1, ptr %4, align 8, !tbaa !89
  %5 = load ptr, ptr %3, align 8
  %6 = getelementptr inbounds nuw %"struct.std::_Vector_base.4", ptr %5, i32 0, i32 0
  %7 = getelementptr inbounds nuw %"struct.std::_Vector_base<SubCircuit::Graph::Edge, std::allocator<SubCircuit::Graph::Edge>>::_Vector_impl_data", ptr %6, i32 0, i32 0
  %8 = load ptr, ptr %7, align 8, !tbaa !103
  %9 = load i64, ptr %4, align 8, !tbaa !89
  %10 = getelementptr inbounds nuw %"struct.SubCircuit::Graph::Edge", ptr %8, i64 %9
  ret ptr %10
}

; Function Attrs: mustprogress nounwind uwtable
define linkonce_odr noundef nonnull align 4 dereferenceable(4) ptr @_ZNK9__gnu_cxx17__normal_iteratorIPN10SubCircuit5Graph7PortBitESt6vectorIS3_SaIS3_EEEdeEv(ptr noundef nonnull align 8 dereferenceable(8) %0) #5 comdat align 2 {
  %2 = alloca ptr, align 8
  store ptr %0, ptr %2, align 8, !tbaa !114
  %3 = load ptr, ptr %2, align 8
  %4 = getelementptr inbounds nuw %"class.__gnu_cxx::__normal_iterator.41", ptr %3, i32 0, i32 0
  %5 = load ptr, ptr %4, align 8, !tbaa !116
  ret ptr %5
}

; Function Attrs: inlinehint mustprogress nounwind uwtable
define linkonce_odr noundef zeroext i1 @_ZN9__gnu_cxxneIPN10SubCircuit5Graph7PortBitESt6vectorIS3_SaIS3_EEEEbRKNS_17__normal_iteratorIT_T0_EESD_(ptr noundef nonnull align 8 dereferenceable(8) %0, ptr noundef nonnull align 8 dereferenceable(8) %1) #7 comdat {
  %3 = alloca ptr, align 8
  %4 = alloca ptr, align 8
  store ptr %0, ptr %3, align 8, !tbaa !114
  store ptr %1, ptr %4, align 8, !tbaa !114
  %5 = load ptr, ptr %3, align 8, !tbaa !114
  %6 = call noundef nonnull align 8 dereferenceable(8) ptr @_ZNK9__gnu_cxx17__normal_iteratorIPN10SubCircuit5Graph7PortBitESt6vectorIS3_SaIS3_EEE4baseEv(ptr noundef nonnull align 8 dereferenceable(8) %5) #3
  %7 = load ptr, ptr %6, align 8, !tbaa !54
  %8 = load ptr, ptr %4, align 8, !tbaa !114
  %9 = call noundef nonnull align 8 dereferenceable(8) ptr @_ZNK9__gnu_cxx17__normal_iteratorIPN10SubCircuit5Graph7PortBitESt6vectorIS3_SaIS3_EEE4baseEv(ptr noundef nonnull align 8 dereferenceable(8) %8) #3
  %10 = load ptr, ptr %9, align 8, !tbaa !54
  %11 = icmp ne ptr %7, %10
  ret i1 %11
}

; Function Attrs: mustprogress nounwind uwtable
define linkonce_odr ptr @_ZNSt6vectorIN10SubCircuit5Graph7PortBitESaIS2_EE3endEv(ptr noundef nonnull align 8 dereferenceable(24) %0) #5 comdat align 2 {
  %2 = alloca %"class.__gnu_cxx::__normal_iterator.41", align 8
  %3 = alloca ptr, align 8
  store ptr %0, ptr %3, align 8, !tbaa !52
  %4 = load ptr, ptr %3, align 8
  %5 = getelementptr inbounds nuw %"struct.std::_Vector_base.28", ptr %4, i32 0, i32 0
  %6 = getelementptr inbounds nuw %"struct.std::_Vector_base<SubCircuit::Graph::PortBit, std::allocator<SubCircuit::Graph::PortBit>>::_Vector_impl_data", ptr %5, i32 0, i32 1
  call void @_ZN9__gnu_cxx17__normal_iteratorIPN10SubCircuit5Graph7PortBitESt6vectorIS3_SaIS3_EEEC2ERKS4_(ptr noundef nonnull align 8 dereferenceable(8) %2, ptr noundef nonnull align 8 dereferenceable(8) %6) #3
  %7 = getelementptr inbounds nuw %"class.__gnu_cxx::__normal_iterator.41", ptr %2, i32 0, i32 0
  %8 = load ptr, ptr %7, align 8
  ret ptr %8
}

; Function Attrs: mustprogress nounwind uwtable
define linkonce_odr ptr @_ZNSt6vectorIN10SubCircuit5Graph7PortBitESaIS2_EE5beginEv(ptr noundef nonnull align 8 dereferenceable(24) %0) #5 comdat align 2 {
  %2 = alloca %"class.__gnu_cxx::__normal_iterator.41", align 8
  %3 = alloca ptr, align 8
  store ptr %0, ptr %3, align 8, !tbaa !52
  %4 = load ptr, ptr %3, align 8
  %5 = getelementptr inbounds nuw %"struct.std::_Vector_base.28", ptr %4, i32 0, i32 0
  %6 = getelementptr inbounds nuw %"struct.std::_Vector_base<SubCircuit::Graph::PortBit, std::allocator<SubCircuit::Graph::PortBit>>::_Vector_impl_data", ptr %5, i32 0, i32 0
  call void @_ZN9__gnu_cxx17__normal_iteratorIPN10SubCircuit5Graph7PortBitESt6vectorIS3_SaIS3_EEEC2ERKS4_(ptr noundef nonnull align 8 dereferenceable(8) %2, ptr noundef nonnull align 8 dereferenceable(8) %6) #3
  %7 = getelementptr inbounds nuw %"class.__gnu_cxx::__normal_iterator.41", ptr %2, i32 0, i32 0
  %8 = load ptr, ptr %7, align 8
  ret ptr %8
}

; Function Attrs: mustprogress nounwind uwtable
define linkonce_odr noundef nonnull align 8 dereferenceable(64) ptr @_ZNSt6vectorIN10SubCircuit5Graph4PortESaIS2_EEixEm(ptr noundef nonnull align 8 dereferenceable(24) %0, i64 noundef %1) #5 comdat align 2 {
  %3 = alloca ptr, align 8
  %4 = alloca i64, align 8
  store ptr %0, ptr %3, align 8, !tbaa !48
  store i64 %1, ptr %4, align 8, !tbaa !89
  %5 = load ptr, ptr %3, align 8
  %6 = getelementptr inbounds nuw %"struct.std::_Vector_base.23", ptr %5, i32 0, i32 0
  %7 = getelementptr inbounds nuw %"struct.std::_Vector_base<SubCircuit::Graph::Port, std::allocator<SubCircuit::Graph::Port>>::_Vector_impl_data", ptr %6, i32 0, i32 0
  %8 = load ptr, ptr %7, align 8, !tbaa !140
  %9 = load i64, ptr %4, align 8, !tbaa !89
  %10 = getelementptr inbounds nuw %"struct.SubCircuit::Graph::Port", ptr %8, i64 %9
  ret ptr %10
}

; Function Attrs: mustprogress nounwind uwtable
define linkonce_odr noundef nonnull align 8 dereferenceable(145) ptr @_ZNSt6vectorIN10SubCircuit5Graph4NodeESaIS2_EEixEm(ptr noundef nonnull align 8 dereferenceable(24) %0, i64 noundef %1) #5 comdat align 2 {
  %3 = alloca ptr, align 8
  %4 = alloca i64, align 8
  store ptr %0, ptr %3, align 8, !tbaa !76
  store i64 %1, ptr %4, align 8, !tbaa !89
  %5 = load ptr, ptr %3, align 8
  %6 = getelementptr inbounds nuw %"struct.std::_Vector_base", ptr %5, i32 0, i32 0
  %7 = getelementptr inbounds nuw %"struct.std::_Vector_base<SubCircuit::Graph::Node, std::allocator<SubCircuit::Graph::Node>>::_Vector_impl_data", ptr %6, i32 0, i32 0
  %8 = load ptr, ptr %7, align 8, !tbaa !94
  %9 = load i64, ptr %4, align 8, !tbaa !89
  %10 = getelementptr inbounds nuw %"struct.SubCircuit::Graph::Node", ptr %8, i64 %9
  ret ptr %10
}

; Function Attrs: mustprogress uwtable
define void @_ZN10SubCircuit5Graph10markExternENSt7__cxx1112basic_stringIcSt11char_traitsIcESaIcEEES6_i(ptr noundef nonnull align 8 dereferenceable(104) %0, ptr noundef %1, ptr noundef %2, i32 noundef %3) #4 align 2 {
  %5 = alloca ptr, align 8
  %6 = alloca ptr, align 8
  %7 = alloca ptr, align 8
  %8 = alloca i32, align 4
  %9 = alloca ptr, align 8
  %10 = alloca ptr, align 8
  %11 = alloca ptr, align 8
  %12 = alloca %"class.__gnu_cxx::__normal_iterator.41", align 8
  %13 = alloca %"class.__gnu_cxx::__normal_iterator.41", align 8
  %14 = alloca %"struct.SubCircuit::Graph::PortBit", align 4
  store ptr %0, ptr %5, align 8, !tbaa !6
  store ptr %1, ptr %6, align 8, !tbaa !88
  store ptr %2, ptr %7, align 8, !tbaa !88
  store i32 %3, ptr %8, align 4, !tbaa !38
  %15 = load ptr, ptr %5, align 8
  call void @llvm.lifetime.start.p0(i64 8, ptr %9) #3
  %16 = getelementptr inbounds nuw %"class.SubCircuit::Graph", ptr %15, i32 0, i32 2
  %17 = getelementptr inbounds nuw %"class.SubCircuit::Graph", ptr %15, i32 0, i32 1
  %18 = call noundef nonnull align 4 dereferenceable(4) ptr @_ZNSt3mapINSt7__cxx1112basic_stringIcSt11char_traitsIcESaIcEEEiSt4lessIS5_ESaISt4pairIKS5_iEEEixERS9_(ptr noundef nonnull align 8 dereferenceable(48) %17, ptr noundef nonnull align 8 dereferenceable(32) %1)
  %19 = load i32, ptr %18, align 4, !tbaa !38
  %20 = sext i32 %19 to i64
  %21 = call noundef nonnull align 8 dereferenceable(145) ptr @_ZNSt6vectorIN10SubCircuit5Graph4NodeESaIS2_EEixEm(ptr noundef nonnull align 8 dereferenceable(24) %16, i64 noundef %20) #3
  store ptr %21, ptr %9, align 8, !tbaa !109
  call void @llvm.lifetime.start.p0(i64 8, ptr %10) #3
  %22 = load ptr, ptr %9, align 8, !tbaa !109
  %23 = getelementptr inbounds nuw %"struct.SubCircuit::Graph::Node", ptr %22, i32 0, i32 3
  %24 = load ptr, ptr %9, align 8, !tbaa !109
  %25 = getelementptr inbounds nuw %"struct.SubCircuit::Graph::Node", ptr %24, i32 0, i32 2
  %26 = call noundef nonnull align 4 dereferenceable(4) ptr @_ZNSt3mapINSt7__cxx1112basic_stringIcSt11char_traitsIcESaIcEEEiSt4lessIS5_ESaISt4pairIKS5_iEEEixERS9_(ptr noundef nonnull align 8 dereferenceable(48) %25, ptr noundef nonnull align 8 dereferenceable(32) %2)
  %27 = load i32, ptr %26, align 4, !tbaa !38
  %28 = sext i32 %27 to i64
  %29 = call noundef nonnull align 8 dereferenceable(64) ptr @_ZNSt6vectorIN10SubCircuit5Graph4PortESaIS2_EEixEm(ptr noundef nonnull align 8 dereferenceable(24) %23, i64 noundef %28) #3
  store ptr %29, ptr %10, align 8, !tbaa !50
  %30 = load i32, ptr %8, align 4, !tbaa !38
  %31 = icmp slt i32 %30, 0
  br i1 %31, label %32, label %55

32:                                               ; preds = %4
  call void @llvm.lifetime.start.p0(i64 8, ptr %11) #3
  %33 = load ptr, ptr %10, align 8, !tbaa !50
  %34 = getelementptr inbounds nuw %"struct.SubCircuit::Graph::Port", ptr %33, i32 0, i32 2
  store ptr %34, ptr %11, align 8, !tbaa !52
  call void @llvm.lifetime.start.p0(i64 8, ptr %12) #3
  %35 = load ptr, ptr %11, align 8, !tbaa !52
  %36 = call ptr @_ZNSt6vectorIN10SubCircuit5Graph7PortBitESaIS2_EE5beginEv(ptr noundef nonnull align 8 dereferenceable(24) %35) #3
  %37 = getelementptr inbounds nuw %"class.__gnu_cxx::__normal_iterator.41", ptr %12, i32 0, i32 0
  store ptr %36, ptr %37, align 8
  call void @llvm.lifetime.start.p0(i64 8, ptr %13) #3
  %38 = load ptr, ptr %11, align 8, !tbaa !52
  %39 = call ptr @_ZNSt6vectorIN10SubCircuit5Graph7PortBitESaIS2_EE3endEv(ptr noundef nonnull align 8 dereferenceable(24) %38) #3
  %40 = getelementptr inbounds nuw %"class.__gnu_cxx::__normal_iterator.41", ptr %13, i32 0, i32 0
  store ptr %39, ptr %40, align 8
  br label %41

41:                                               ; preds = %52, %32
  %42 = call noundef zeroext i1 @_ZN9__gnu_cxxneIPN10SubCircuit5Graph7PortBitESt6vectorIS3_SaIS3_EEEEbRKNS_17__normal_iteratorIT_T0_EESD_(ptr noundef nonnull align 8 dereferenceable(8) %12, ptr noundef nonnull align 8 dereferenceable(8) %13) #3
  br i1 %42, label %44, label %43

43:                                               ; preds = %41
  call void @llvm.lifetime.end.p0(i64 8, ptr %13) #3
  call void @llvm.lifetime.end.p0(i64 8, ptr %12) #3
  call void @llvm.lifetime.end.p0(i64 8, ptr %11) #3
  br label %54

44:                                               ; preds = %41
  call void @llvm.lifetime.start.p0(i64 4, ptr %14) #3
  %45 = call noundef nonnull align 4 dereferenceable(4) ptr @_ZNK9__gnu_cxx17__normal_iteratorIPN10SubCircuit5Graph7PortBitESt6vectorIS3_SaIS3_EEEdeEv(ptr noundef nonnull align 8 dereferenceable(8) %12) #3
  call void @llvm.memcpy.p0.p0.i64(ptr align 4 %14, ptr align 4 %45, i64 4, i1 false), !tbaa.struct !146
  %46 = getelementptr inbounds nuw %"class.SubCircuit::Graph", ptr %15, i32 0, i32 3
  %47 = getelementptr inbounds nuw %"struct.SubCircuit::Graph::PortBit", ptr %14, i32 0, i32 0
  %48 = load i32, ptr %47, align 4, !tbaa !72
  %49 = sext i32 %48 to i64
  %50 = call noundef nonnull align 8 dereferenceable(53) ptr @_ZNSt6vectorIN10SubCircuit5Graph4EdgeESaIS2_EEixEm(ptr noundef nonnull align 8 dereferenceable(24) %46, i64 noundef %49) #3
  %51 = getelementptr inbounds nuw %"struct.SubCircuit::Graph::Edge", ptr %50, i32 0, i32 2
  store i8 1, ptr %51, align 4, !tbaa !71
  call void @llvm.lifetime.end.p0(i64 4, ptr %14) #3
  br label %52

52:                                               ; preds = %44
  %53 = call noundef nonnull align 8 dereferenceable(8) ptr @_ZN9__gnu_cxx17__normal_iteratorIPN10SubCircuit5Graph7PortBitESt6vectorIS3_SaIS3_EEEppEv(ptr noundef nonnull align 8 dereferenceable(8) %12) #3
  br label %41

54:                                               ; preds = %43
  br label %67

55:                                               ; preds = %4
  %56 = getelementptr inbounds nuw %"class.SubCircuit::Graph", ptr %15, i32 0, i32 3
  %57 = load ptr, ptr %10, align 8, !tbaa !50
  %58 = getelementptr inbounds nuw %"struct.SubCircuit::Graph::Port", ptr %57, i32 0, i32 2
  %59 = load i32, ptr %8, align 4, !tbaa !38
  %60 = sext i32 %59 to i64
  %61 = call noundef nonnull align 4 dereferenceable(4) ptr @_ZNSt6vectorIN10SubCircuit5Graph7PortBitESaIS2_EEixEm(ptr noundef nonnull align 8 dereferenceable(24) %58, i64 noundef %60) #3
  %62 = getelementptr inbounds nuw %"struct.SubCircuit::Graph::PortBit", ptr %61, i32 0, i32 0
  %63 = load i32, ptr %62, align 4, !tbaa !72
  %64 = sext i32 %63 to i64
  %65 = call noundef nonnull align 8 dereferenceable(53) ptr @_ZNSt6vectorIN10SubCircuit5Graph4EdgeESaIS2_EEixEm(ptr noundef nonnull align 8 dereferenceable(24) %56, i64 noundef %64) #3
  %66 = getelementptr inbounds nuw %"struct.SubCircuit::Graph::Edge", ptr %65, i32 0, i32 2
  store i8 1, ptr %66, align 4, !tbaa !71
  br label %67

67:                                               ; preds = %55, %54
  call void @llvm.lifetime.end.p0(i64 8, ptr %10) #3
  call void @llvm.lifetime.end.p0(i64 8, ptr %9) #3
  ret void
}