; Function Attrs: mustprogress uwtable
define void @_ZN10SubCircuit5Graph10markExternENSt7__cxx1112basic_stringIcSt11char_traitsIcESaIcEEES6_i(ptr noundef nonnull align 8 dereferenceable(104) %0, ptr noundef nonnull %1, ptr noundef %2, i32 noundef %3) local_unnamed_addr #3 align 2 {
  %5 = getelementptr inbounds nuw i8, ptr %0, i64 56
  %6 = getelementptr inbounds nuw i8, ptr %0, i64 8
  %7 = tail call noundef nonnull align 4 dereferenceable(4) ptr @_ZNSt3mapINSt7__cxx1112basic_stringIcSt11char_traitsIcESaIcEEEiSt4lessIS5_ESaISt4pairIKS5_iEEEixERS9_(ptr noundef nonnull align 8 dereferenceable(48) %6, ptr noundef nonnull align 8 dereferenceable(32) %1)
  %8 = load i32, ptr %7, align 4, !tbaa !43
  %9 = sext i32 %8 to i64
  %10 = load ptr, ptr %5, align 8, !tbaa !52
  %11 = getelementptr inbounds nuw %"struct.SubCircuit::Graph::Node", ptr %10, i64 %9
  %12 = getelementptr inbounds nuw i8, ptr %11, i64 112
  %13 = getelementptr inbounds nuw i8, ptr %11, i64 64
  %14 = tail call noundef nonnull align 4 dereferenceable(4) ptr @_ZNSt3mapINSt7__cxx1112basic_stringIcSt11char_traitsIcESaIcEEEiSt4lessIS5_ESaISt4pairIKS5_iEEEixERS9_(ptr noundef nonnull align 8 dereferenceable(48) %13, ptr noundef nonnull align 8 dereferenceable(32) %2)
  %15 = load i32, ptr %14, align 4, !tbaa !43
  %16 = sext i32 %15 to i64
  %17 = load ptr, ptr %12, align 8, !tbaa !93
  %18 = getelementptr inbounds nuw %"struct.SubCircuit::Graph::Port", ptr %17, i64 %16
  %19 = icmp slt i32 %3, 0
  br i1 %19, label %20, label %31

20:                                               ; preds = %4
  %21 = getelementptr inbounds nuw i8, ptr %18, i64 40
  %22 = load ptr, ptr %21, align 8, !tbaa !55
  %23 = getelementptr inbounds nuw i8, ptr %18, i64 48
  %24 = load ptr, ptr %23, align 8, !tbaa !55
  %.not11 = icmp eq ptr %22, %24
  br i1 %.not11, label %.loopexit, label %.lr.ph

.lr.ph:                                           ; preds = %20
  %25 = getelementptr inbounds nuw i8, ptr %0, i64 80
  %26 = load ptr, ptr %25, align 8, !tbaa !48
  br label %27

27:                                               ; preds = %.lr.ph, %27
  %.sroa.08.012 = phi ptr [ %22, %.lr.ph ], [ %30, %27 ]
  %.sroa.0.0.copyload = load i32, ptr %.sroa.08.012, align 4, !tbaa !43
  %28 = sext i32 %.sroa.0.0.copyload to i64
  %29 = getelementptr inbounds nuw %"struct.SubCircuit::Graph::Edge", ptr %26, i64 %28, i32 2
  store i8 1, ptr %29, align 4, !tbaa !70
  %30 = getelementptr inbounds nuw i8, ptr %.sroa.08.012, i64 4
  %.not = icmp eq ptr %30, %24
  br i1 %.not, label %.loopexit, label %27

31:                                               ; preds = %4
  %32 = getelementptr inbounds nuw i8, ptr %0, i64 80
  %33 = getelementptr inbounds nuw i8, ptr %18, i64 40
  %34 = zext nneg i32 %3 to i64
  %35 = load ptr, ptr %33, align 8, !tbaa !104
  %36 = getelementptr inbounds nuw %"struct.SubCircuit::Graph::PortBit", ptr %35, i64 %34
  %37 = load i32, ptr %36, align 4, !tbaa !78
  %38 = sext i32 %37 to i64
  %39 = load ptr, ptr %32, align 8, !tbaa !48
  %40 = getelementptr inbounds nuw %"struct.SubCircuit::Graph::Edge", ptr %39, i64 %38, i32 2
  store i8 1, ptr %40, align 4, !tbaa !70
  br label %.loopexit

.loopexit:                                        ; preds = %27, %20, %31
  ret void
}